; Function Attrs: mustprogress uwtable
define void @_ZN3nix10TarArchiveC2ERKNSt7__cxx1112basic_stringIcSt11char_traitsIcESaIcEEE(ptr nocapture noundef nonnull align 8 dereferenceable(40) %0, ptr nocapture noundef nonnull readonly align 8 dereferenceable(32) %1) unnamed_addr #4 align 2 personality ptr @__gxx_personality_v0 {
  %3 = alloca %"class.std::__cxx11::basic_string", align 8
  %4 = alloca %"class.std::allocator.4", align 1
  %5 = getelementptr inbounds i8, ptr %0, i64 16
  tail call void @llvm.memset.p0.i64(ptr noundef nonnull align 8 dereferenceable(24) %5, i8 0, i64 24, i1 false)
  %6 = invoke ptr @archive_read_new()
          to label %7 unwind label %28

7:                                                ; preds = %2
  store ptr %6, ptr %0, align 8
  %8 = invoke i32 @archive_read_support_filter_all(ptr noundef %6)
          to label %9 unwind label %28

9:                                                ; preds = %7
  %10 = load ptr, ptr %0, align 8
  %11 = invoke i32 @archive_read_support_format_all(ptr noundef %10)
          to label %12 unwind label %28

12:                                               ; preds = %9
  %13 = load ptr, ptr %0, align 8
  %14 = invoke i32 @archive_read_set_option(ptr noundef %13, ptr noundef null, ptr noundef nonnull @.str.4, ptr noundef null)
          to label %15 unwind label %28

15:                                               ; preds = %12
  %16 = load ptr, ptr %0, align 8
  %17 = load ptr, ptr %1, align 8
  %18 = invoke i32 @archive_read_open_filename(ptr noundef %16, ptr noundef %17, i64 noundef 16384)
          to label %19 unwind label %28

19:                                               ; preds = %15
  call void @_ZNSaIcEC1Ev(ptr noundef nonnull align 1 dereferenceable(1) %4) #22
  invoke void @_ZNSt7__cxx1112basic_stringIcSt11char_traitsIcESaIcEEC2IS3_EEPKcRKS3_(ptr noundef nonnull align 8 dereferenceable(32) %3, ptr noundef nonnull @.str.6, ptr noundef nonnull align 1 dereferenceable(1) %4)
          to label %20 unwind label %30

20:                                               ; preds = %19
  invoke void @_ZN3nix10TarArchive5checkEiRKNSt7__cxx1112basic_stringIcSt11char_traitsIcESaIcEEE(ptr noundef nonnull align 8 dereferenceable(40) %0, i32 noundef %18, ptr noundef nonnull align 8 dereferenceable(32) %3)
          to label %21 unwind label %32

21:                                               ; preds = %20
  %22 = load ptr, ptr %3, align 8
  %23 = getelementptr inbounds i8, ptr %3, i64 16
  %24 = icmp eq ptr %22, %23
  br i1 %24, label %_ZNKSt7__cxx1112basic_stringIcSt11char_traitsIcESaIcEE11_M_is_localEv.exit.thread.i.i, label %_ZNKSt7__cxx1112basic_stringIcSt11char_traitsIcESaIcEE11_M_is_localEv.exit.i.i

_ZNKSt7__cxx1112basic_stringIcSt11char_traitsIcESaIcEE11_M_is_localEv.exit.thread.i.i: ; preds = %21
  %25 = getelementptr inbounds i8, ptr %3, i64 8
  %26 = load i64, ptr %25, align 8
  %27 = icmp ult i64 %26, 16
  call void @llvm.assume(i1 %27)
  br label %_ZNSt7__cxx1112basic_stringIcSt11char_traitsIcESaIcEED2Ev.exit

_ZNKSt7__cxx1112basic_stringIcSt11char_traitsIcESaIcEE11_M_is_localEv.exit.i.i: ; preds = %21
  call void @_ZdlPv(ptr noundef %22) #25
  br label %_ZNSt7__cxx1112basic_stringIcSt11char_traitsIcESaIcEED2Ev.exit

_ZNSt7__cxx1112basic_stringIcSt11char_traitsIcESaIcEED2Ev.exit: ; preds = %_ZNKSt7__cxx1112basic_stringIcSt11char_traitsIcESaIcEE11_M_is_localEv.exit.thread.i.i, %_ZNKSt7__cxx1112basic_stringIcSt11char_traitsIcESaIcEE11_M_is_localEv.exit.i.i
  call void @_ZNSaIcED2Ev(ptr noundef nonnull align 1 dereferenceable(1) %3) #22
  call void @_ZNSaIcED1Ev(ptr noundef nonnull align 1 dereferenceable(1) %4) #22
  ret void

28:                                               ; preds = %15, %12, %9, %7, %2
  %29 = landingpad { ptr, i32 }
          cleanup
  br label %35

30:                                               ; preds = %19
  %31 = landingpad { ptr, i32 }
          cleanup
  br label %34

32:                                               ; preds = %20
  %33 = landingpad { ptr, i32 }
          cleanup
  call void @_ZNSt7__cxx1112basic_stringIcSt11char_traitsIcESaIcEED2Ev(ptr noundef nonnull align 8 dereferenceable(32) %3) #22
  br label %34

34:                                               ; preds = %32, %30
  %.pn = phi { ptr, i32 } [ %33, %32 ], [ %31, %30 ]
  call void @_ZNSaIcED1Ev(ptr noundef nonnull align 1 dereferenceable(1) %4) #22
  br label %35

35:                                               ; preds = %34, %28
  %.pn.pn = phi { ptr, i32 } [ %.pn, %34 ], [ %29, %28 ]
  %36 = load ptr, ptr %5, align 8
  %.not.i.i.i = icmp eq ptr %36, null
  br i1 %.not.i.i.i, label %_ZNSt6vectorIhSaIhEED2Ev.exit, label %37

37:                                               ; preds = %35
  call void @_ZdlPv(ptr noundef nonnull %36) #25
  br label %_ZNSt6vectorIhSaIhEED2Ev.exit

_ZNSt6vectorIhSaIhEED2Ev.exit:                    ; preds = %35, %37
  resume { ptr, i32 } %.pn.pn
}